target datalayout = "e-m:e-p270:32:32-p271:32:32-p272:64:64-i64:64-i128:128-f80:128-n8:16:32:64-S128"
target triple = "x86_64-pc-linux-gnu"

%struct.SDL_VideoDevice = type { ptr, ptr, ptr, ptr, ptr, ptr, ptr, ptr, ptr, ptr, ptr, ptr, ptr, ptr, ptr, ptr, ptr, ptr, ptr, ptr, ptr, ptr, ptr, ptr, ptr, ptr, ptr, ptr, ptr, ptr, ptr, ptr, ptr, ptr, ptr, ptr, ptr, ptr, ptr, ptr, ptr, ptr, ptr, ptr, ptr, ptr, ptr, ptr, ptr, ptr, ptr, ptr, ptr, ptr, ptr, ptr, ptr, ptr, ptr, ptr, ptr, ptr, ptr, ptr, ptr, ptr, ptr, ptr, ptr, ptr, ptr, ptr, ptr, ptr, ptr, ptr, ptr, ptr, ptr, ptr, ptr, ptr, ptr, ptr, ptr, ptr, ptr, ptr, ptr, ptr, ptr, ptr, ptr, ptr, ptr, ptr, ptr, i64, i8, i8, i8, ptr, i32, ptr, %struct.SDL_Rect, ptr, ptr, i32, ptr, ptr, ptr, ptr, i64, ptr, i8, i32, i32, %struct.anon, ptr, ptr, ptr, ptr, ptr, ptr, %struct.SDL_AtomicInt, %struct.SDL_AtomicInt, i8, %struct.anon.0, ptr, ptr, ptr, ptr, ptr }
%struct.SDL_Rect = type { i32, i32, i32, i32 }
%struct.anon = type { i32, i32, i32, i32, i32, i32, i32, i32, i32, i32, i32, i32, i32, i32, i32, i32, i32, i32, i32, i32, i32, i32, i32, i32, i32, i32, i32, i32, i32, [256 x i8], ptr }
%struct.SDL_AtomicInt = type { i32 }
%struct.anon.0 = type { ptr, ptr, i32, [256 x i8], ptr }
%struct.SDL_GLDriverData = type { i32, i32, i8, i8, i8, i8, i8, i8, %struct.anon.1, i32, ptr, ptr, ptr, ptr, ptr, ptr, ptr, ptr, ptr, ptr, ptr, ptr, ptr, ptr, ptr }
%struct.anon.1 = type { i32, i32 }
%struct.SDL_VideoData = type { ptr, ptr, i32, ptr, i64, i32, ptr, i32, i64, i64, %struct.X11_ClipboardData, %struct.X11_ClipboardData, ptr, i64, %struct.X11_SettingsData, i8, %struct.anon.2, [256 x i32], i8, i8, i8, i64, i8, %struct.SDL_Point, i32, ptr, i32, i8, i32, %struct.anon.3, i8, i64, ptr, ptr, i8, i8, i8 }
%struct.X11_ClipboardData = type { ptr, ptr, ptr, i64, i32 }
%struct.X11_SettingsData = type { ptr }
%struct.anon.2 = type { i64, i64, i64, i64, i64, i64, i64, i64, i64, i64, i64, i64, i64, i64, i64, i64, i64, i64, i64, i64, i64, i64, i64, i64, i64, i64, i64, i64, i64, i64, i64, i64, i64, i64, i64, i64, i64, i64, i64, i64, i64, i64, i64, i64, i64, i64, i64, i64, i64, i64, i64, i64, i64 }
%struct.SDL_Point = type { i32, i32 }
%struct.anon.3 = type { ptr, i32, i32, i32, i16, i32, i32 }
%struct.SDL_Window = type { i32, ptr, ptr, i32, i32, i32, i32, i32, i32, i32, i32, float, float, i32, i32, i64, i64, float, i8, i8, i32, i32, %struct.SDL_Rect, %struct.SDL_Rect, %struct.SDL_Rect, i8, i8, i8, %struct.SDL_DisplayMode, %struct.SDL_DisplayMode, %struct.SDL_HDROutputProperties, float, ptr, i8, i8, i8, i8, i8, i8, i8, i8, i8, i32, i32, i32, i32, %struct.SDL_Rect, i32, i8, %struct.SDL_Rect, i32, %struct.SDL_Rect, ptr, ptr, i32, float, i32, i32, ptr, ptr, ptr, ptr, ptr, ptr, ptr, ptr, ptr }
%struct.SDL_DisplayMode = type { i32, i32, i32, i32, float, float, i32, i32, ptr }
%struct.SDL_HDROutputProperties = type { float, float }
%struct.SDL_WindowData = type { ptr, i64, ptr, i64, i8, %struct.XShmSegmentInfo, ptr, ptr, ptr, i8, i32, i32, i32, i32, i8, i8, i8, i64, i32, i64, i8, %struct.SDL_Point, %struct.XConfigureEvent, %struct.XConfigureEvent, ptr, i64, i64, i64, i8, i64, ptr, i8, [4 x i64], %struct.SDL_Rect, i64, %struct._XSyncValue, i8, %struct.SDL_Rect, %struct.SDL_DisplayMode, i32, i32, i8, i8, i8, i8, i8, i8, i8, i8, i32, %struct.XPoint, ptr, ptr, i32, i32, i8 }
%struct.XShmSegmentInfo = type { i64, i32, ptr, i32 }
%struct.XConfigureEvent = type { i32, i64, i32, ptr, i64, i64, i32, i32, i32, i32, i32, i64, i32 }
%struct._XSyncValue = type { i32, i32 }
%struct.XPoint = type { i16, i16 }

@X11_XSync = external global ptr, align 8
@errorHandlerOperation = internal global ptr null, align 8
@errorBase = internal global i32 0, align 4
@errorCode = internal global i32 0, align 4
@X11_XSetErrorHandler = external global ptr, align 8
@handler = internal global ptr null, align 8
@.str.20 = private unnamed_addr constant [23 x i8] c"OpenGL not initialized\00", align 1
@.str.21 = private unnamed_addr constant [24 x i8] c"make GL context current\00", align 1
@.str.22 = private unnamed_addr constant [34 x i8] c"Unable to make GL context current\00", align 1

; Function Attrs: nounwind uwtable
define hidden zeroext i1 @X11_GL_MakeCurrent(ptr noundef %0, ptr noundef %1, ptr noundef %2) #0 {
  %4 = alloca i1, align 1
  %5 = alloca ptr, align 8
  %6 = alloca ptr, align 8
  %7 = alloca ptr, align 8
  %8 = alloca ptr, align 8
  %9 = alloca i64, align 8
  %10 = alloca ptr, align 8
  %11 = alloca i32, align 4
  %12 = alloca i32, align 4
  store ptr %0, ptr %5, align 8
  store ptr %1, ptr %6, align 8
  store ptr %2, ptr %7, align 8
  call void @llvm.lifetime.start.p0(i64 8, ptr %8) #5
  %13 = load ptr, ptr %5, align 8
  %14 = getelementptr inbounds nuw %struct.SDL_VideoDevice, ptr %13, i32 0, i32 128
  %15 = load ptr, ptr %14, align 8
  %16 = getelementptr inbounds nuw %struct.SDL_VideoData, ptr %15, i32 0, i32 0
  %17 = load ptr, ptr %16, align 8
  store ptr %17, ptr %8, align 8
  call void @llvm.lifetime.start.p0(i64 8, ptr %9) #5
  %18 = load ptr, ptr %7, align 8
  %19 = icmp ne ptr %18, null
  br i1 %19, label %20, label %26

20:                                               ; preds = %3
  %21 = load ptr, ptr %6, align 8
  %22 = getelementptr inbounds nuw %struct.SDL_Window, ptr %21, i32 0, i32 59
  %23 = load ptr, ptr %22, align 8
  %24 = getelementptr inbounds nuw %struct.SDL_WindowData, ptr %23, i32 0, i32 1
  %25 = load i64, ptr %24, align 8
  br label %27

26:                                               ; preds = %3
  br label %27

27:                                               ; preds = %26, %20
  %28 = phi i64 [ %25, %20 ], [ 0, %26 ]
  store i64 %28, ptr %9, align 8
  call void @llvm.lifetime.start.p0(i64 8, ptr %10) #5
  %29 = load ptr, ptr %7, align 8
  store ptr %29, ptr %10, align 8
  call void @llvm.lifetime.start.p0(i64 4, ptr %11) #5
  %30 = load ptr, ptr %5, align 8
  %31 = getelementptr inbounds nuw %struct.SDL_VideoDevice, ptr %30, i32 0, i32 129
  %32 = load ptr, ptr %31, align 8
  %33 = icmp ne ptr %32, null
  br i1 %33, label %36, label %34

34:                                               ; preds = %27
  %35 = call zeroext i1 (ptr, ...) @SDL_SetError_REAL(ptr noundef @.str.20)
  store i1 %35, ptr %4, align 1
  store i32 1, ptr %12, align 4
  br label %69

36:                                               ; preds = %27
  %37 = load ptr, ptr @X11_XSync, align 8
  %38 = load ptr, ptr %8, align 8
  %39 = call i32 %37(ptr noundef %38, i32 noundef 0)
  store ptr @.str.21, ptr @errorHandlerOperation, align 8
  %40 = load ptr, ptr %5, align 8
  %41 = getelementptr inbounds nuw %struct.SDL_VideoDevice, ptr %40, i32 0, i32 129
  %42 = load ptr, ptr %41, align 8
  %43 = getelementptr inbounds nuw %struct.SDL_GLDriverData, ptr %42, i32 0, i32 0
  %44 = load i32, ptr %43, align 8
  store i32 %44, ptr @errorBase, align 4
  store i32 0, ptr @errorCode, align 4
  %45 = load ptr, ptr @X11_XSetErrorHandler, align 8
  %46 = call ptr %45(ptr noundef @X11_GL_ErrorHandler)
  store ptr %46, ptr @handler, align 8
  %47 = load ptr, ptr %5, align 8
  %48 = getelementptr inbounds nuw %struct.SDL_VideoDevice, ptr %47, i32 0, i32 129
  %49 = load ptr, ptr %48, align 8
  %50 = getelementptr inbounds nuw %struct.SDL_GLDriverData, ptr %49, i32 0, i32 18
  %51 = load ptr, ptr %50, align 8
  %52 = load ptr, ptr %8, align 8
  %53 = load i64, ptr %9, align 8
  %54 = load ptr, ptr %10, align 8
  %55 = call i32 %51(ptr noundef %52, i64 noundef %53, ptr noundef %54)
  store i32 %55, ptr %11, align 4
  %56 = load ptr, ptr @X11_XSetErrorHandler, align 8
  %57 = load ptr, ptr @handler, align 8
  %58 = call ptr %56(ptr noundef %57)
  %59 = load i32, ptr @errorCode, align 4
  %60 = icmp ne i32 %59, 0
  br i1 %60, label %61, label %62

61:                                               ; preds = %36
  store i1 false, ptr %4, align 1
  store i32 1, ptr %12, align 4
  br label %69

62:                                               ; preds = %36
  %63 = load i32, ptr %11, align 4
  %64 = icmp ne i32 %63, 0
  br i1 %64, label %67, label %65

65:                                               ; preds = %62
  %66 = call zeroext i1 (ptr, ...) @SDL_SetError_REAL(ptr noundef @.str.22)
  store i1 %66, ptr %4, align 1
  store i32 1, ptr %12, align 4
  br label %69

67:                                               ; preds = %62
  br label %68

68:                                               ; preds = %67
  store i1 true, ptr %4, align 1
  store i32 1, ptr %12, align 4
  br label %69

69:                                               ; preds = %68, %65, %61, %34
  call void @llvm.lifetime.end.p0(i64 4, ptr %11) #5
  call void @llvm.lifetime.end.p0(i64 8, ptr %10) #5
  call void @llvm.lifetime.end.p0(i64 8, ptr %9) #5
  call void @llvm.lifetime.end.p0(i64 8, ptr %8) #5
  %70 = load i1, ptr %4, align 1
  ret i1 %70
}