; Function Attrs: nounwind uwtable
define hidden zeroext i1 @X11_GL_MakeCurrent(ptr noundef readonly captures(none) %0, ptr noundef readonly captures(none) %1, ptr noundef %2) local_unnamed_addr #0 {
  %4 = getelementptr inbounds nuw i8, ptr %0, i64 1656
  %5 = load ptr, ptr %4, align 8
  %6 = load ptr, ptr %5, align 8
  %.not = icmp eq ptr %2, null
  br i1 %.not, label %12, label %7

7:                                                ; preds = %3
  %8 = getelementptr inbounds nuw i8, ptr %1, i64 392
  %9 = load ptr, ptr %8, align 8
  %10 = getelementptr inbounds nuw i8, ptr %9, i64 8
  %11 = load i64, ptr %10, align 8
  br label %12

12:                                               ; preds = %3, %7
  %13 = phi i64 [ %11, %7 ], [ 0, %3 ]
  %14 = getelementptr inbounds nuw i8, ptr %0, i64 1664
  %15 = load ptr, ptr %14, align 8
  %.not12 = icmp eq ptr %15, null
  br i1 %.not12, label %.sink.split, label %16

16:                                               ; preds = %12
  %17 = load ptr, ptr @X11_XSync, align 8
  %18 = tail call i32 %17(ptr noundef %6, i32 noundef 0) #6
  store ptr @.str.21, ptr @errorHandlerOperation, align 8
  %19 = load ptr, ptr %14, align 8
  %20 = load i32, ptr %19, align 8
  store i32 %20, ptr @errorBase, align 4
  store i32 0, ptr @errorCode, align 4
  %21 = load ptr, ptr @X11_XSetErrorHandler, align 8
  %22 = tail call ptr %21(ptr noundef nonnull @X11_GL_ErrorHandler) #6
  store ptr %22, ptr @handler, align 8
  %23 = load ptr, ptr %14, align 8
  %24 = getelementptr inbounds nuw i8, ptr %23, i64 96
  %25 = load ptr, ptr %24, align 8
  %26 = tail call i32 %25(ptr noundef %6, i64 noundef %13, ptr noundef %2) #6
  %27 = load ptr, ptr @X11_XSetErrorHandler, align 8
  %28 = load ptr, ptr @handler, align 8
  %29 = tail call ptr %27(ptr noundef %28) #6
  %30 = load i32, ptr @errorCode, align 4
  %.not13 = icmp eq i32 %30, 0
  br i1 %.not13, label %31, label %33

31:                                               ; preds = %16
  %.not14 = icmp eq i32 %26, 0
  br i1 %.not14, label %.sink.split, label %33

.sink.split:                                      ; preds = %31, %12
  %.str.22.sink = phi ptr [ @.str.20, %12 ], [ @.str.22, %31 ]
  %32 = tail call zeroext i1 (ptr, ...) @SDL_SetError_REAL(ptr noundef nonnull %.str.22.sink) #6
  br label %33

33:                                               ; preds = %.sink.split, %31, %16
  %.0 = phi i1 [ false, %16 ], [ true, %31 ], [ %32, %.sink.split ]
  ret i1 %.0
}